; Function Attrs: nounwind uwtable
define hidden ptr @cmsIT8GetDataRowCol(ptr nocapture noundef %0, i32 noundef %1, i32 noundef %2) local_unnamed_addr #0 {
  %4 = getelementptr inbounds i8, ptr %0, i64 4
  %5 = load i32, ptr %4, align 4
  %6 = load i32, ptr %0, align 8
  %.not.i.i = icmp ult i32 %5, %6
  br i1 %.not.i.i, label %9, label %7

7:                                                ; preds = %3
  tail call void (ptr, ptr, ...) @SynError(ptr noundef nonnull %0, ptr noundef nonnull @.str.81, i32 noundef %5)
  %8 = getelementptr inbounds i8, ptr %0, i64 16
  br label %GetTable.exit.i

9:                                                ; preds = %3
  %10 = getelementptr inbounds i8, ptr %0, i64 16
  %11 = zext i32 %5 to i64
  %12 = getelementptr inbounds %struct._Table, ptr %10, i64 %11
  br label %GetTable.exit.i

GetTable.exit.i:                                  ; preds = %9, %7
  %.0.i.i = phi ptr [ %8, %7 ], [ %12, %9 ]
  %13 = getelementptr inbounds i8, ptr %.0.i.i, i64 1024
  %14 = load i32, ptr %13, align 8
  %15 = icmp slt i32 %1, 0
  br i1 %15, label %GetData.exit, label %16

16:                                               ; preds = %GetTable.exit.i
  %17 = getelementptr inbounds i8, ptr %.0.i.i, i64 1028
  %18 = load i32, ptr %17, align 4
  %19 = icmp sgt i32 %18, %1
  %20 = icmp sgt i32 %2, -1
  %or.cond.not23.i = and i1 %20, %19
  %.not.i = icmp sgt i32 %14, %2
  %or.cond20.i = select i1 %or.cond.not23.i, i1 %.not.i, i1 false
  br i1 %or.cond20.i, label %21, label %GetData.exit

21:                                               ; preds = %16
  %22 = getelementptr inbounds i8, ptr %.0.i.i, i64 1056
  %23 = load ptr, ptr %22, align 8
  %.not19.i = icmp eq ptr %23, null
  br i1 %.not19.i, label %GetData.exit, label %24

24:                                               ; preds = %21
  %25 = mul nsw i32 %14, %1
  %26 = add nuw nsw i32 %25, %2
  %27 = zext nneg i32 %26 to i64
  %28 = getelementptr inbounds ptr, ptr %23, i64 %27
  %29 = load ptr, ptr %28, align 8
  br label %GetData.exit

GetData.exit:                                     ; preds = %GetTable.exit.i, %16, %21, %24
  %.0.i = phi ptr [ %29, %24 ], [ null, %16 ], [ null, %GetTable.exit.i ], [ null, %21 ]
  ret ptr %.0.i
}